target datalayout = "e-m:e-p270:32:32-p271:32:32-p272:64:64-i64:64-i128:128-f80:128-n8:16:32:64-S128"
target triple = "x86_64-pc-linux-gnu"

%struct.dlist_node = type { ptr, ptr }
%struct.RI_ConstraintInfo = type { i32, i8, i32, i32, i32, %struct.nameData, i32, i32, i8, i8, i32, [32 x i16], i8, i8, i32, [32 x i16], [32 x i16], [32 x i32], [32 x i32], [32 x i32], i32, i32, i32, %struct.dlist_node }
%struct.nameData = type { [64 x i8] }
%struct.TupleTableSlot = type { i32, i16, i16, ptr, ptr, ptr, ptr, ptr, %struct.ItemPointerData, i32 }
%struct.ItemPointerData = type { %struct.BlockIdData, i16 }
%struct.BlockIdData = type { i16, i16 }

; Function Attrs: inlinehint nounwind uwtable
define internal void @slot_getsomeattrs(ptr noundef %0, i32 noundef %1) #4 {
  %3 = alloca ptr, align 8
  %4 = alloca i32, align 4
  store ptr %0, ptr %3, align 8
  store i32 %1, ptr %4, align 4
  %5 = load ptr, ptr %3, align 8
  %6 = getelementptr inbounds nuw %struct.TupleTableSlot, ptr %5, i32 0, i32 2
  %7 = load i16, ptr %6, align 2
  %8 = sext i16 %7 to i32
  %9 = load i32, ptr %4, align 4
  %10 = icmp slt i32 %8, %9
  br i1 %10, label %11, label %14

11:                                               ; preds = %2
  %12 = load ptr, ptr %3, align 8
  %13 = load i32, ptr %4, align 4
  call void @slot_getsomeattrs_int(ptr noundef %12, i32 noundef %13)
  br label %14

14:                                               ; preds = %11, %2
  ret void
}

; Function Attrs: inlinehint nounwind uwtable
define internal zeroext i1 @slot_attisnull(ptr noundef %0, i32 noundef %1) #4 {
  %3 = alloca ptr, align 8
  %4 = alloca i32, align 4
  store ptr %0, ptr %3, align 8
  store i32 %1, ptr %4, align 4
  %5 = load i32, ptr %4, align 4
  %6 = load ptr, ptr %3, align 8
  %7 = getelementptr inbounds nuw %struct.TupleTableSlot, ptr %6, i32 0, i32 2
  %8 = load i16, ptr %7, align 2
  %9 = sext i16 %8 to i32
  %10 = icmp sgt i32 %5, %9
  br i1 %10, label %11, label %14

11:                                               ; preds = %2
  %12 = load ptr, ptr %3, align 8
  %13 = load i32, ptr %4, align 4
  call void @slot_getsomeattrs(ptr noundef %12, i32 noundef %13)
  br label %14

14:                                               ; preds = %11, %2
  %15 = load ptr, ptr %3, align 8
  %16 = getelementptr inbounds nuw %struct.TupleTableSlot, ptr %15, i32 0, i32 6
  %17 = load ptr, ptr %16, align 8
  %18 = load i32, ptr %4, align 4
  %19 = sub i32 %18, 1
  %20 = sext i32 %19 to i64
  %21 = getelementptr inbounds i8, ptr %17, i64 %20
  %22 = load i8, ptr %21, align 1, !range !4, !noundef !5
  %23 = trunc i8 %22 to i1
  ret i1 %23
}

; Function Attrs: nounwind uwtable
define internal i32 @ri_NullCheck(ptr noundef %0, ptr noundef %1, ptr noundef %2, i1 noundef zeroext %3) #0 {
  %5 = alloca i32, align 4
  %6 = alloca ptr, align 8
  %7 = alloca ptr, align 8
  %8 = alloca ptr, align 8
  %9 = alloca i8, align 1
  %10 = alloca ptr, align 8
  %11 = alloca i8, align 1
  %12 = alloca i8, align 1
  %13 = alloca i32, align 4
  %14 = alloca i32, align 4
  store ptr %0, ptr %6, align 8
  store ptr %1, ptr %7, align 8
  store ptr %2, ptr %8, align 8
  %15 = zext i1 %3 to i8
  store i8 %15, ptr %9, align 1
  call void @llvm.lifetime.start.p0(i64 8, ptr %10) #9
  call void @llvm.lifetime.start.p0(i64 1, ptr %11) #9
  store i8 1, ptr %11, align 1
  call void @llvm.lifetime.start.p0(i64 1, ptr %12) #9
  store i8 1, ptr %12, align 1
  %16 = load i8, ptr %9, align 1, !range !4, !noundef !5
  %17 = trunc i8 %16 to i1
  br i1 %17, label %18, label %22

18:                                               ; preds = %4
  %19 = load ptr, ptr %8, align 8
  %20 = getelementptr inbounds nuw %struct.RI_ConstraintInfo, ptr %19, i32 0, i32 15
  %21 = getelementptr inbounds [32 x i16], ptr %20, i64 0, i64 0
  store ptr %21, ptr %10, align 8
  br label %26

22:                                               ; preds = %4
  %23 = load ptr, ptr %8, align 8
  %24 = getelementptr inbounds nuw %struct.RI_ConstraintInfo, ptr %23, i32 0, i32 16
  %25 = getelementptr inbounds [32 x i16], ptr %24, i64 0, i64 0
  store ptr %25, ptr %10, align 8
  br label %26

26:                                               ; preds = %22, %18
  call void @llvm.lifetime.start.p0(i64 4, ptr %13) #9
  store i32 0, ptr %13, align 4
  br label %27

27:                                               ; preds = %46, %26
  %28 = load i32, ptr %13, align 4
  %29 = load ptr, ptr %8, align 8
  %30 = getelementptr inbounds nuw %struct.RI_ConstraintInfo, ptr %29, i32 0, i32 14
  %31 = load i32, ptr %30, align 8
  %32 = icmp slt i32 %28, %31
  br i1 %32, label %34, label %33

33:                                               ; preds = %27
  call void @llvm.lifetime.end.p0(i64 4, ptr %13) #9
  br label %49

34:                                               ; preds = %27
  %35 = load ptr, ptr %7, align 8
  %36 = load ptr, ptr %10, align 8
  %37 = load i32, ptr %13, align 4
  %38 = sext i32 %37 to i64
  %39 = getelementptr inbounds i16, ptr %36, i64 %38
  %40 = load i16, ptr %39, align 2
  %41 = sext i16 %40 to i32
  %42 = call zeroext i1 @slot_attisnull(ptr noundef %35, i32 noundef %41)
  br i1 %42, label %43, label %44

43:                                               ; preds = %34
  store i8 0, ptr %12, align 1
  br label %45

44:                                               ; preds = %34
  store i8 0, ptr %11, align 1
  br label %45

45:                                               ; preds = %44, %43
  br label %46

46:                                               ; preds = %45
  %47 = load i32, ptr %13, align 4
  %48 = add i32 %47, 1
  store i32 %48, ptr %13, align 4
  br label %27, !llvm.loop !15

49:                                               ; preds = %33
  %50 = load i8, ptr %11, align 1, !range !4, !noundef !5
  %51 = trunc i8 %50 to i1
  br i1 %51, label %52, label %53

52:                                               ; preds = %49
  store i32 0, ptr %5, align 4
  store i32 1, ptr %14, align 4
  br label %58

53:                                               ; preds = %49
  %54 = load i8, ptr %12, align 1, !range !4, !noundef !5
  %55 = trunc i8 %54 to i1
  br i1 %55, label %56, label %57

56:                                               ; preds = %53
  store i32 2, ptr %5, align 4
  store i32 1, ptr %14, align 4
  br label %58

57:                                               ; preds = %53
  store i32 1, ptr %5, align 4
  store i32 1, ptr %14, align 4
  br label %58

58:                                               ; preds = %57, %56, %52
  call void @llvm.lifetime.end.p0(i64 1, ptr %12) #9
  call void @llvm.lifetime.end.p0(i64 1, ptr %11) #9
  call void @llvm.lifetime.end.p0(i64 8, ptr %10) #9
  %59 = load i32, ptr %5, align 4
  ret i32 %59
}