; Function Attrs: nounwind uwtable
define internal fastcc range(i32 0, 3) i32 @ri_NullCheck(ptr noundef %0, ptr noundef readonly captures(none) %1, i1 noundef zeroext %2) unnamed_addr #0 {
  %4 = getelementptr inbounds nuw i8, ptr %1, i64 168
  %5 = load i32, ptr %4, align 8
  %6 = icmp sgt i32 %5, 0
  br i1 %6, label %.lr.ph, label %._crit_edge

.lr.ph:                                           ; preds = %3
  %. = select i1 %2, i64 172, i64 236
  %7 = getelementptr inbounds nuw i8, ptr %1, i64 %.
  %8 = getelementptr inbounds nuw i8, ptr %0, i64 6
  %9 = getelementptr inbounds nuw i8, ptr %0, i64 32
  br label %12

._crit_edge.loopexit:                             ; preds = %slot_attisnull.exit
  %10 = select i1 %..011, i32 2, i32 1
  %11 = select i1 %.012., i32 0, i32 %10
  br label %._crit_edge

._crit_edge:                                      ; preds = %._crit_edge.loopexit, %3
  %.012.lcssa = phi i32 [ 0, %3 ], [ %11, %._crit_edge.loopexit ]
  ret i32 %.012.lcssa

12:                                               ; preds = %.lr.ph, %slot_attisnull.exit
  %13 = phi i32 [ %5, %.lr.ph ], [ %19, %slot_attisnull.exit ]
  %indvars.iv = phi i64 [ 0, %.lr.ph ], [ %indvars.iv.next, %slot_attisnull.exit ]
  %.0112 = phi i1 [ true, %.lr.ph ], [ %..011, %slot_attisnull.exit ]
  %.0121 = phi i1 [ true, %.lr.ph ], [ %.012., %slot_attisnull.exit ]
  %14 = getelementptr inbounds nuw i16, ptr %7, i64 %indvars.iv
  %15 = load i16, ptr %14, align 2
  %16 = load i16, ptr %8, align 2
  %17 = icmp sgt i16 %15, %16
  br i1 %17, label %slot_getsomeattrs.exit.i, label %slot_attisnull.exit

slot_getsomeattrs.exit.i:                         ; preds = %12
  %18 = sext i16 %15 to i32
  tail call void @slot_getsomeattrs_int(ptr noundef nonnull %0, i32 noundef range(i32 -32767, 32768) %18) #11
  %.pre = load i32, ptr %4, align 8
  br label %slot_attisnull.exit

slot_attisnull.exit:                              ; preds = %12, %slot_getsomeattrs.exit.i
  %19 = phi i32 [ %13, %12 ], [ %.pre, %slot_getsomeattrs.exit.i ]
  %20 = load ptr, ptr %9, align 8
  %21 = sext i16 %15 to i64
  %22 = getelementptr i8, ptr %20, i64 %21
  %23 = getelementptr i8, ptr %22, i64 -1
  %24 = load i8, ptr %23, align 1, !range !4, !noundef !5
  %25 = trunc nuw i8 %24 to i1
  %.012. = select i1 %25, i1 %.0121, i1 false
  %not. = xor i1 %25, true
  %..011 = select i1 %not., i1 %.0112, i1 false
  %indvars.iv.next = add nuw nsw i64 %indvars.iv, 1
  %26 = sext i32 %19 to i64
  %27 = icmp slt i64 %indvars.iv.next, %26
  br i1 %27, label %12, label %._crit_edge.loopexit, !llvm.loop !6
}